target datalayout = "e-m:e-p270:32:32-p271:32:32-p272:64:64-i64:64-i128:128-f80:128-n8:16:32:64-S128"
target triple = "x86_64-pc-linux-gnu"

; Function Attrs: mustprogress nounwind uwtable
define void @_ZN20colvarbias_histogramD1Ev(ptr noundef nonnull align 8 dereferenceable(440) %0) unnamed_addr #1 align 2 {
  %2 = alloca ptr, align 8
  store ptr %0, ptr %2, align 8, !tbaa !21
  %3 = load ptr, ptr %2, align 8
  call void @_ZN20colvarbias_histogramD2Ev(ptr noundef nonnull align 8 dereferenceable(440) %3, ptr noundef @_ZTT20colvarbias_histogram) #6
  %4 = getelementptr inbounds i8, ptr %3, i64 760
  call void @_ZN10colvardepsD2Ev(ptr noundef nonnull align 8 dereferenceable(120) %4) #6
  %5 = getelementptr inbounds i8, ptr %3, i64 440
  call void @_ZN11colvarparseD2Ev(ptr noundef nonnull align 8 dereferenceable(320) %5) #6
  ret void
}

; Function Attrs: mustprogress nounwind uwtable
define void @_ZN20colvarbias_histogramD0Ev(ptr noundef nonnull align 8 dereferenceable(440) %0) unnamed_addr #1 align 2 {
  %2 = alloca ptr, align 8
  store ptr %0, ptr %2, align 8, !tbaa !21
  %3 = load ptr, ptr %2, align 8
  call void @_ZN20colvarbias_histogramD1Ev(ptr noundef nonnull align 8 dereferenceable(440) %3) #6
  call void @_ZdlPvm(ptr noundef %3, i64 noundef 880) #19
  ret void
}

; Function Attrs: nounwind uwtable
define void @_ZTv0_n72_N20colvarbias_histogramD0Ev(ptr noundef %0) unnamed_addr #3 align 2 {
  %2 = alloca ptr, align 8
  store ptr %0, ptr %2, align 8, !tbaa !21
  %3 = load ptr, ptr %2, align 8
  %4 = load ptr, ptr %3, align 8, !tbaa !15
  %5 = getelementptr inbounds i8, ptr %4, i64 -72
  %6 = load i64, ptr %5, align 8
  %7 = getelementptr inbounds i8, ptr %3, i64 %6
  tail call void @_ZN20colvarbias_histogramD0Ev(ptr noundef nonnull align 8 dereferenceable(440) %7) #6
  ret void
}