; Function Attrs: nounwind uwtable
define void @_ZTv0_n72_N20colvarbias_histogramD0Ev(ptr noundef %0) unnamed_addr #3 align 2 {
  %2 = load ptr, ptr %0, align 8, !tbaa !66
  %3 = getelementptr inbounds i8, ptr %2, i64 -72
  %4 = load i64, ptr %3, align 8
  %5 = getelementptr inbounds i8, ptr %0, i64 %4
  tail call void @_ZN20colvarbias_histogramD2Ev(ptr noundef nonnull align 8 dereferenceable(440) %5, ptr noundef nonnull @_ZTT20colvarbias_histogram) #21
  %6 = getelementptr inbounds nuw i8, ptr %5, i64 760
  tail call void @_ZN10colvardepsD2Ev(ptr noundef nonnull align 8 dereferenceable(120) %6) #21
  %7 = getelementptr inbounds nuw i8, ptr %5, i64 440
  tail call void @_ZN11colvarparseD2Ev(ptr noundef nonnull align 8 dereferenceable(320) %7) #21
  tail call void @_ZdlPvm(ptr noundef nonnull align 8 dereferenceable(440) %5, i64 noundef 880) #22
  ret void
}